target datalayout = "e-m:e-p270:32:32-p271:32:32-p272:64:64-i64:64-i128:128-f80:128-n8:16:32:64-S128"
target triple = "x86_64-pc-linux-gnu"

%struct.QemuMutex = type { %union.pthread_mutex_t, i8 }
%union.pthread_mutex_t = type { %struct.__pthread_mutex_s }
%struct.__pthread_mutex_s = type { i32, i32, i32, i32, i32, i16, i16, %struct.__pthread_internal_list }
%struct.__pthread_internal_list = type { ptr, ptr }
%struct.BlockJob = type { %struct.Job, i32, i64, %struct.RateLimit, ptr, %struct.Notifier, %struct.Notifier, %struct.Notifier, %struct.Notifier, %struct.Notifier, ptr }
%struct.Job = type { ptr, ptr, ptr, i8, i8, ptr, ptr, %struct.ProgressMeter, ptr, i32, i32, %struct.QEMUTimer, i32, i8, i8, i8, i8, i8, i8, i32, ptr, %struct.NotifierList, %struct.NotifierList, %struct.NotifierList, %struct.NotifierList, %struct.NotifierList, %struct.anon.0, ptr, %struct.anon.1 }
%struct.ProgressMeter = type { i64, i64, %struct.QemuMutex }
%struct.QEMUTimer = type { i64, ptr, ptr, ptr, ptr, i32, i32 }
%struct.NotifierList = type { %struct.anon }
%struct.anon = type { ptr }
%struct.anon.0 = type { ptr, ptr }
%struct.anon.1 = type { ptr, ptr }
%struct.RateLimit = type { %struct.QemuMutex, i64, i64, i64, i64, i64 }
%struct.Notifier = type { ptr, %struct.anon.2 }
%struct.anon.2 = type { ptr, ptr }

@.str = private unnamed_addr constant [22 x i8] c"qemu_in_main_thread()\00", align 1
@.str.1 = private unnamed_addr constant [19 x i8] c"../qemu/blockjob.c\00", align 1
@__PRETTY_FUNCTION__.block_job_free = private unnamed_addr constant [27 x i8] c"void block_job_free(Job *)\00", align 1

; Function Attrs: inlinehint nounwind sspstrong uwtable
define internal void @ratelimit_destroy(ptr noundef %0) #4 {
  %2 = alloca ptr, align 8
  store ptr %0, ptr %2, align 8
  %3 = load ptr, ptr %2, align 8
  %4 = getelementptr inbounds nuw %struct.RateLimit, ptr %3, i32 0, i32 0
  call void @qemu_mutex_destroy(ptr noundef %4)
  ret void
}

; Function Attrs: nounwind sspstrong uwtable
define dso_local void @block_job_free(ptr noundef %0) #0 {
  %2 = alloca ptr, align 8
  %3 = alloca ptr, align 8
  %4 = alloca ptr, align 8
  %5 = alloca ptr, align 8
  store ptr %0, ptr %2, align 8
  call void @llvm.lifetime.start.p0(i64 8, ptr %3) #12
  call void @llvm.lifetime.start.p0(i64 8, ptr %4) #12
  %6 = load ptr, ptr %2, align 8
  store ptr %6, ptr %4, align 8
  %7 = load ptr, ptr %4, align 8
  %8 = getelementptr inbounds i8, ptr %7, i64 0
  store ptr %8, ptr %5, align 8
  call void @llvm.lifetime.end.p0(i64 8, ptr %4) #12
  %9 = load ptr, ptr %5, align 8
  store ptr %9, ptr %3, align 8
  br label %10

10:                                               ; preds = %1
  %11 = call zeroext i1 @qemu_in_main_thread()
  br i1 %11, label %12, label %13

12:                                               ; preds = %10
  br label %14

13:                                               ; preds = %10
  call void @__assert_fail(ptr noundef @.str, ptr noundef @.str.1, i32 noundef 80, ptr noundef @__PRETTY_FUNCTION__.block_job_free) #13
  unreachable

14:                                               ; preds = %12
  br label %15

15:                                               ; preds = %14
  br label %16

16:                                               ; preds = %15
  %17 = load ptr, ptr %3, align 8
  call void @block_job_remove_all_bdrv(ptr noundef %17)
  %18 = load ptr, ptr %3, align 8
  %19 = getelementptr inbounds nuw %struct.BlockJob, ptr %18, i32 0, i32 3
  call void @ratelimit_destroy(ptr noundef %19)
  %20 = load ptr, ptr %3, align 8
  %21 = getelementptr inbounds nuw %struct.BlockJob, ptr %20, i32 0, i32 4
  %22 = load ptr, ptr %21, align 8
  call void @error_free(ptr noundef %22)
  call void @llvm.lifetime.end.p0(i64 8, ptr %3) #12
  ret void
}