; Function Attrs: nounwind sspstrong uwtable
define dso_local void @block_job_free(ptr noundef %0) #0 {
  %2 = tail call zeroext i1 @qemu_in_main_thread() #8
  br i1 %2, label %4, label %3

3:                                                ; preds = %1
  tail call void @__assert_fail(ptr noundef nonnull @.str, ptr noundef nonnull @.str.1, i32 noundef 80, ptr noundef nonnull @__PRETTY_FUNCTION__.block_job_free) #9
  unreachable

4:                                                ; preds = %1
  tail call void @block_job_remove_all_bdrv(ptr noundef %0)
  %5 = getelementptr inbounds nuw i8, ptr %0, i64 296
  tail call void @qemu_mutex_destroy(ptr noundef nonnull %5) #8
  %6 = getelementptr inbounds nuw i8, ptr %0, i64 384
  %7 = load ptr, ptr %6, align 8
  tail call void @error_free(ptr noundef %7) #8
  ret void
}